target datalayout = "e-m:e-p270:32:32-p271:32:32-p272:64:64-i64:64-i128:128-f80:128-n8:16:32:64-S128"
target triple = "x86_64-pc-linux-gnu"

%"class.std::function" = type { %"class.std::_Function_base", ptr }
%"class.std::_Function_base" = type { %"union.std::_Any_data", ptr }
%"union.std::_Any_data" = type { %"union.std::_Nocopy_types" }
%"union.std::_Nocopy_types" = type { { i64, i64 } }
%struct.stack_t = type { ptr, i32, i64 }
%struct.sigaction = type { %union.anon.19, %struct.__sigset_t, i32, ptr }
%union.anon.19 = type { ptr }
%struct.__sigset_t = type { [16 x i64] }
%struct.ucontext_t = type { i64, ptr, %struct.stack_t, %struct.mcontext_t, %struct.__sigset_t, %struct._libc_fpstate, [4 x i64] }
%struct.mcontext_t = type { [23 x i64], ptr, [8 x i64] }
%struct._libc_fpstate = type { i16, i16, i16, i16, i64, i64, i32, i32, [8 x %struct._libc_fpxreg], [16 x %struct._libc_xmmreg], [24 x i32] }
%struct._libc_fpxreg = type { [4 x i16], i16, [3 x i16] }
%struct._libc_xmmreg = type { [4 x i32] }
%struct.siginfo_t = type { i32, i32, i32, i32, %union.anon.36 }
%union.anon.36 = type { %struct.anon.39, [80 x i8] }
%struct.anon.39 = type { i32, i32, i32, i64, i64 }
%struct.anon.40 = type { ptr, i16, %union.anon.41 }
%union.anon.41 = type { %struct.anon.42 }
%struct.anon.42 = type { ptr, ptr }

@_ZN3nix20stackOverflowHandlerE = global %"class.std::function" zeroinitializer, align 8

; Function Attrs: mustprogress nounwind uwtable
define linkonce_odr noundef zeroext i1 @_ZNKSt14_Function_base8_M_emptyEv(ptr noundef nonnull align 8 dereferenceable(24) %0) #2 comdat align 2 {
  %2 = alloca ptr, align 8
  store ptr %0, ptr %2, align 8
  %3 = load ptr, ptr %2, align 8
  %4 = getelementptr inbounds %"class.std::_Function_base", ptr %3, i32 0, i32 1
  %5 = load ptr, ptr %4, align 8
  %6 = icmp ne ptr %5, null
  %7 = xor i1 %6, true
  ret i1 %7
}

; Function Attrs: mustprogress uwtable
define linkonce_odr void @_ZNKSt8functionIFvP9siginfo_tPvEEclES1_S2_(ptr noundef nonnull align 8 dereferenceable(32) %0, ptr noundef %1, ptr noundef %2) #5 comdat align 2 {
  %4 = alloca ptr, align 8
  %5 = alloca ptr, align 8
  %6 = alloca ptr, align 8
  store ptr %0, ptr %4, align 8
  store ptr %1, ptr %5, align 8
  store ptr %2, ptr %6, align 8
  %7 = load ptr, ptr %4, align 8
  %8 = call noundef zeroext i1 @_ZNKSt14_Function_base8_M_emptyEv(ptr noundef nonnull align 8 dereferenceable(24) %7)
  br i1 %8, label %9, label %10

9:                                                ; preds = %3
  call void @_ZSt25__throw_bad_function_callv() #18
  unreachable

10:                                               ; preds = %3
  %11 = getelementptr inbounds %"class.std::function", ptr %7, i32 0, i32 1
  %12 = load ptr, ptr %11, align 8
  %13 = getelementptr inbounds %"class.std::_Function_base", ptr %7, i32 0, i32 0
  call void %12(ptr noundef nonnull align 8 dereferenceable(16) %13, ptr noundef nonnull align 8 dereferenceable(8) %5, ptr noundef nonnull align 8 dereferenceable(8) %6)
  ret void
}

; Function Attrs: mustprogress uwtable
define internal void @_ZN3nixL14sigsegvHandlerEiP9siginfo_tPv(i32 noundef %0, ptr noundef %1, ptr noundef %2) #5 {
  %4 = alloca i32, align 4
  %5 = alloca ptr, align 8
  %6 = alloca ptr, align 8
  %7 = alloca i8, align 1
  %8 = alloca ptr, align 8
  %9 = alloca i64, align 8
  %10 = alloca %struct.sigaction, align 8
  store i32 %0, ptr %4, align 4
  store ptr %1, ptr %5, align 8
  store ptr %2, ptr %6, align 8
  store i8 1, ptr %7, align 1
  store ptr null, ptr %8, align 8
  %11 = load ptr, ptr %6, align 8
  %12 = getelementptr inbounds %struct.ucontext_t, ptr %11, i32 0, i32 3
  %13 = getelementptr inbounds %struct.mcontext_t, ptr %12, i32 0, i32 0
  %14 = getelementptr inbounds [23 x i64], ptr %13, i64 0, i64 15
  %15 = load i64, ptr %14, align 8
  %16 = inttoptr i64 %15 to ptr
  store ptr %16, ptr %8, align 8
  %17 = load i8, ptr %7, align 1
  %18 = trunc i8 %17 to i1
  br i1 %18, label %19, label %40

19:                                               ; preds = %3
  %20 = load ptr, ptr %5, align 8
  %21 = getelementptr inbounds %struct.siginfo_t, ptr %20, i32 0, i32 4
  %22 = getelementptr inbounds %struct.anon.40, ptr %21, i32 0, i32 0
  %23 = load ptr, ptr %22, align 8
  %24 = load ptr, ptr %8, align 8
  %25 = ptrtoint ptr %23 to i64
  %26 = ptrtoint ptr %24 to i64
  %27 = sub i64 %25, %26
  store i64 %27, ptr %9, align 8
  %28 = load i64, ptr %9, align 8
  %29 = icmp slt i64 %28, 0
  br i1 %29, label %30, label %33

30:                                               ; preds = %19
  %31 = load i64, ptr %9, align 8
  %32 = sub nsw i64 0, %31
  store i64 %32, ptr %9, align 8
  br label %33

33:                                               ; preds = %30, %19
  %34 = load i64, ptr %9, align 8
  %35 = icmp slt i64 %34, 4096
  br i1 %35, label %36, label %39

36:                                               ; preds = %33
  %37 = load ptr, ptr %5, align 8
  %38 = load ptr, ptr %6, align 8
  call void @_ZNKSt8functionIFvP9siginfo_tPvEEclES1_S2_(ptr noundef nonnull align 8 dereferenceable(32) @_ZN3nix20stackOverflowHandlerE, ptr noundef %37, ptr noundef %38)
  br label %39

39:                                               ; preds = %36, %33
  br label %40

40:                                               ; preds = %39, %3
  %41 = getelementptr inbounds %struct.sigaction, ptr %10, i32 0, i32 1
  %42 = call i32 @sigfillset(ptr noundef %41) #1
  %43 = getelementptr inbounds %struct.sigaction, ptr %10, i32 0, i32 0
  store ptr null, ptr %43, align 8
  %44 = getelementptr inbounds %struct.sigaction, ptr %10, i32 0, i32 2
  store i32 0, ptr %44, align 8
  %45 = call i32 @sigaction(i32 noundef 11, ptr noundef %10, ptr noundef null) #1
  %46 = icmp ne i32 %45, 0
  br i1 %46, label %47, label %48

47:                                               ; preds = %40
  call void @abort() #21
  unreachable

48:                                               ; preds = %40
  ret void
}