; Function Attrs: mustprogress uwtable
define internal void @_ZN3nixL14sigsegvHandlerEiP9siginfo_tPv(i32 %0, ptr noundef %1, ptr noundef %2) #4 {
  %4 = alloca ptr, align 8
  %5 = alloca ptr, align 8
  %6 = alloca %struct.sigaction, align 8
  %7 = getelementptr inbounds i8, ptr %2, i64 160
  %8 = load i64, ptr %7, align 8
  %9 = getelementptr inbounds i8, ptr %1, i64 16
  %10 = load ptr, ptr %9, align 8
  %11 = ptrtoint ptr %10 to i64
  %12 = sub i64 %11, %8
  %.0 = tail call i64 @llvm.abs.i64(i64 %12, i1 true)
  %13 = icmp ult i64 %.0, 4096
  br i1 %13, label %14, label %18

14:                                               ; preds = %3
  call void @llvm.lifetime.start.p0(i64 8, ptr nonnull %4)
  call void @llvm.lifetime.start.p0(i64 8, ptr nonnull %5)
  store ptr %1, ptr %4, align 8
  store ptr %2, ptr %5, align 8
  %15 = load ptr, ptr getelementptr inbounds (%"class.std::function", ptr @_ZN3nix20stackOverflowHandlerE, i64 0, i32 0, i32 1), align 8
  %.not.i.i = icmp eq ptr %15, null
  br i1 %.not.i.i, label %16, label %_ZNKSt8functionIFvP9siginfo_tPvEEclES1_S2_.exit

16:                                               ; preds = %14
  tail call void @_ZSt25__throw_bad_function_callv() #24
  unreachable

_ZNKSt8functionIFvP9siginfo_tPvEEclES1_S2_.exit:  ; preds = %14
  %17 = load ptr, ptr getelementptr inbounds (%"class.std::function", ptr @_ZN3nix20stackOverflowHandlerE, i64 0, i32 1), align 8
  call void %17(ptr noundef nonnull align 8 dereferenceable(16) @_ZN3nix20stackOverflowHandlerE, ptr noundef nonnull align 8 dereferenceable(8) %4, ptr noundef nonnull align 8 dereferenceable(8) %5)
  call void @llvm.lifetime.end.p0(i64 8, ptr nonnull %4)
  call void @llvm.lifetime.end.p0(i64 8, ptr nonnull %5)
  br label %18

18:                                               ; preds = %3, %_ZNKSt8functionIFvP9siginfo_tPvEEclES1_S2_.exit
  %19 = getelementptr inbounds i8, ptr %6, i64 8
  %20 = call i32 @sigfillset(ptr noundef nonnull %19) #23
  store ptr null, ptr %6, align 8
  %21 = getelementptr inbounds i8, ptr %6, i64 136
  store i32 0, ptr %21, align 8
  %22 = call i32 @sigaction(i32 noundef 11, ptr noundef nonnull %6, ptr noundef null) #23
  %.not = icmp eq i32 %22, 0
  br i1 %.not, label %24, label %23

23:                                               ; preds = %18
  call void @abort() #28
  unreachable

24:                                               ; preds = %18
  ret void
}